target datalayout = "e-m:e-p270:32:32-p271:32:32-p272:64:64-i64:64-i128:128-f80:128-n8:16:32:64-S128"
target triple = "x86_64-pc-linux-gnu"

%"class.cv::Size_" = type { i32, i32 }
%"class.cv::optflow::OpticalFlowPCAFlow" = type <{ %"class.cv::DenseOpticalFlow", %"struct.cv::Ptr", %"class.cv::Size_", float, float, float, float, float, i8, [3 x i8] }>
%"class.cv::DenseOpticalFlow" = type { %"class.cv::Algorithm" }
%"class.cv::Algorithm" = type { ptr }
%"struct.cv::Ptr" = type { %"class.std::shared_ptr" }
%"class.std::shared_ptr" = type { %"class.std::__shared_ptr" }
%"class.std::__shared_ptr" = type { ptr, %"class.std::__shared_count" }
%"class.std::__shared_count" = type { ptr }
%"class.std::__cxx11::basic_string" = type { %"struct.std::__cxx11::basic_string<char>::_Alloc_hider", i64, %union.anon }
%"struct.std::__cxx11::basic_string<char>::_Alloc_hider" = type { ptr }
%union.anon = type { i64, [8 x i8] }
%"class.std::allocator.10" = type { i8 }
%"class.std::_Sp_counted_base" = type { ptr, i32, i32 }

@.str.3 = private unnamed_addr constant [139 x i8] c"generated/home/dtcxzyw/WorkSpace/Projects/compilers/llvm-opt-benchmark/bench/opencv/contrib/opencv_contrib/modules/optflow/src/pcaflow.cpp\00", align 1
@.str.8 = private unnamed_addr constant [36 x i8] c"sparseRate > 0 && sparseRate <= 0.1\00", align 1
@__func__._ZN2cv7optflow18OpticalFlowPCAFlowC2ENS_3PtrIKNS0_8PCAPriorEEENS_5Size_IiEEfffff = private unnamed_addr constant [19 x i8] c"OpticalFlowPCAFlow\00", align 1
@.str.9 = private unnamed_addr constant [63 x i8] c"retainedCornersFraction >= 0 && retainedCornersFraction <= 1.0\00", align 1
@.str.10 = private unnamed_addr constant [24 x i8] c"occlusionsThreshold > 0\00", align 1
@__libc_single_threaded = external global i8, align 1

; Function Attrs: noreturn nounwind uwtable
define linkonce_odr hidden void @__clang_call_terminate(ptr noundef %0) #9 comdat {
  %2 = call ptr @__cxa_begin_catch(ptr %0) #3
  call void @_ZSt9terminatev() #14
  unreachable
}

; Function Attrs: mustprogress uwtable
define linkonce_odr hidden void @_ZNSt16_Sp_counted_baseILN9__gnu_cxx12_Lock_policyE2EE15_M_add_ref_copyEv(ptr noundef nonnull align 8 dereferenceable(16) %0) #4 comdat align 2 {
  %2 = alloca ptr, align 8
  %3 = alloca i32, align 4
  %4 = alloca i32, align 4
  %5 = alloca i32, align 4
  %6 = alloca ptr, align 8
  %7 = alloca i32, align 4
  %8 = alloca ptr, align 8
  %9 = alloca i32, align 4
  %10 = alloca ptr, align 8
  store ptr %0, ptr %10, align 8
  %11 = load ptr, ptr %10, align 8
  %12 = getelementptr inbounds %"class.std::_Sp_counted_base", ptr %11, i32 0, i32 1
  store ptr %12, ptr %8, align 8
  store i32 1, ptr %9, align 4
  %13 = load i8, ptr @__libc_single_threaded, align 1
  %14 = icmp ne i8 %13, 0
  br i1 %14, label %15, label %22

15:                                               ; preds = %1
  %16 = load ptr, ptr %8, align 8
  %17 = load i32, ptr %9, align 4
  store ptr %16, ptr %6, align 8
  store i32 %17, ptr %7, align 4
  %18 = load i32, ptr %7, align 4
  %19 = load ptr, ptr %6, align 8
  %20 = load i32, ptr %19, align 4
  %21 = add nsw i32 %20, %18
  store i32 %21, ptr %19, align 4
  br label %29

22:                                               ; preds = %1
  %23 = load ptr, ptr %8, align 8
  %24 = load i32, ptr %9, align 4
  store ptr %23, ptr %2, align 8
  store i32 %24, ptr %3, align 4
  %25 = load ptr, ptr %2, align 8
  %26 = load i32, ptr %3, align 4
  store i32 %26, ptr %4, align 4
  %27 = load i32, ptr %4, align 4
  %28 = atomicrmw volatile add ptr %25, i32 %27 acq_rel, align 4
  store i32 %28, ptr %5, align 4
  br label %29

29:                                               ; preds = %22, %15
  ret void
}

; Function Attrs: mustprogress nounwind uwtable
define linkonce_odr hidden void @_ZNSt14__shared_countILN9__gnu_cxx12_Lock_policyE2EEC2ERKS2_(ptr noundef nonnull align 8 dereferenceable(8) %0, ptr noundef nonnull align 8 dereferenceable(8) %1) unnamed_addr #5 comdat align 2 personality ptr @__gxx_personality_v0 {
  %3 = alloca ptr, align 8
  %4 = alloca ptr, align 8
  store ptr %0, ptr %3, align 8
  store ptr %1, ptr %4, align 8
  %5 = load ptr, ptr %3, align 8
  %6 = getelementptr inbounds %"class.std::__shared_count", ptr %5, i32 0, i32 0
  %7 = load ptr, ptr %4, align 8
  %8 = getelementptr inbounds %"class.std::__shared_count", ptr %7, i32 0, i32 0
  %9 = load ptr, ptr %8, align 8
  store ptr %9, ptr %6, align 8
  %10 = getelementptr inbounds %"class.std::__shared_count", ptr %5, i32 0, i32 0
  %11 = load ptr, ptr %10, align 8
  %12 = icmp ne ptr %11, null
  br i1 %12, label %13, label %17

13:                                               ; preds = %2
  %14 = getelementptr inbounds %"class.std::__shared_count", ptr %5, i32 0, i32 0
  %15 = load ptr, ptr %14, align 8
  invoke void @_ZNSt16_Sp_counted_baseILN9__gnu_cxx12_Lock_policyE2EE15_M_add_ref_copyEv(ptr noundef nonnull align 8 dereferenceable(16) %15)
          to label %16 unwind label %18

16:                                               ; preds = %13
  br label %17

17:                                               ; preds = %16, %2
  ret void

18:                                               ; preds = %13
  %19 = landingpad { ptr, i32 }
          catch ptr null
  %20 = extractvalue { ptr, i32 } %19, 0
  call void @__clang_call_terminate(ptr %20) #14
  unreachable
}

; Function Attrs: mustprogress nounwind uwtable
define linkonce_odr hidden void @_ZNSt12__shared_ptrIKN2cv7optflow8PCAPriorELN9__gnu_cxx12_Lock_policyE2EEC2ERKS6_(ptr noundef nonnull align 8 dereferenceable(16) %0, ptr noundef nonnull align 8 dereferenceable(16) %1) unnamed_addr #5 comdat align 2 {
  %3 = alloca ptr, align 8
  %4 = alloca ptr, align 8
  store ptr %0, ptr %3, align 8
  store ptr %1, ptr %4, align 8
  %5 = load ptr, ptr %3, align 8
  %6 = getelementptr inbounds %"class.std::__shared_ptr", ptr %5, i32 0, i32 0
  %7 = load ptr, ptr %4, align 8
  %8 = getelementptr inbounds %"class.std::__shared_ptr", ptr %7, i32 0, i32 0
  %9 = load ptr, ptr %8, align 8
  store ptr %9, ptr %6, align 8
  %10 = getelementptr inbounds %"class.std::__shared_ptr", ptr %5, i32 0, i32 1
  %11 = load ptr, ptr %4, align 8
  %12 = getelementptr inbounds %"class.std::__shared_ptr", ptr %11, i32 0, i32 1
  call void @_ZNSt14__shared_countILN9__gnu_cxx12_Lock_policyE2EEC2ERKS2_(ptr noundef nonnull align 8 dereferenceable(8) %10, ptr noundef nonnull align 8 dereferenceable(8) %12) #3
  ret void
}

; Function Attrs: mustprogress nounwind uwtable
define linkonce_odr hidden void @_ZNSt10shared_ptrIKN2cv7optflow8PCAPriorEEC2ERKS4_(ptr noundef nonnull align 8 dereferenceable(16) %0, ptr noundef nonnull align 8 dereferenceable(16) %1) unnamed_addr #5 comdat align 2 {
  %3 = alloca ptr, align 8
  %4 = alloca ptr, align 8
  store ptr %0, ptr %3, align 8
  store ptr %1, ptr %4, align 8
  %5 = load ptr, ptr %3, align 8
  %6 = load ptr, ptr %4, align 8
  call void @_ZNSt12__shared_ptrIKN2cv7optflow8PCAPriorELN9__gnu_cxx12_Lock_policyE2EEC2ERKS6_(ptr noundef nonnull align 8 dereferenceable(16) %5, ptr noundef nonnull align 8 dereferenceable(16) %6) #3
  ret void
}

; Function Attrs: mustprogress nounwind uwtable
define linkonce_odr hidden void @_ZN2cv16DenseOpticalFlowD2Ev(ptr noundef nonnull align 8 dereferenceable(8) %0) unnamed_addr #5 comdat align 2 {
  %2 = alloca ptr, align 8
  store ptr %0, ptr %2, align 8
  %3 = load ptr, ptr %2, align 8
  call void @_ZN2cv9AlgorithmD2Ev(ptr noundef nonnull align 8 dereferenceable(8) %3) #3
  ret void
}

; Function Attrs: mustprogress nounwind uwtable
define linkonce_odr hidden void @_ZN2cv3PtrIKNS_7optflow8PCAPriorEEC2ERKS4_(ptr noundef nonnull align 8 dereferenceable(16) %0, ptr noundef nonnull align 8 dereferenceable(16) %1) unnamed_addr #5 comdat align 2 {
  %3 = alloca ptr, align 8
  %4 = alloca ptr, align 8
  store ptr %0, ptr %3, align 8
  store ptr %1, ptr %4, align 8
  %5 = load ptr, ptr %3, align 8
  %6 = load ptr, ptr %4, align 8
  call void @_ZNSt10shared_ptrIKN2cv7optflow8PCAPriorEEC2ERKS4_(ptr noundef nonnull align 8 dereferenceable(16) %5, ptr noundef nonnull align 8 dereferenceable(16) %6) #3
  ret void
}

; Function Attrs: mustprogress uwtable
define linkonce_odr hidden void @_ZN2cv16DenseOpticalFlowC2Ev(ptr noundef nonnull align 8 dereferenceable(8) %0) unnamed_addr #4 comdat align 2 {
  %2 = alloca ptr, align 8
  store ptr %0, ptr %2, align 8
  %3 = load ptr, ptr %2, align 8
  call void @_ZN2cv9AlgorithmC2Ev(ptr noundef nonnull align 8 dereferenceable(8) %3)
  store ptr getelementptr inbounds inrange(-16, 80) ({ [12 x ptr] }, ptr @_ZTVN2cv16DenseOpticalFlowE, i32 0, i32 0, i32 2), ptr %3, align 8
  ret void
}

; Function Attrs: mustprogress uwtable
define void @_ZN2cv7optflow18OpticalFlowPCAFlowC2ENS_3PtrIKNS0_8PCAPriorEEENS_5Size_IiEEfffff(ptr noundef nonnull align 8 dereferenceable(53) %0, ptr noundef %1, i64 %2, float noundef %3, float noundef %4, float noundef %5, float noundef %6, float noundef %7) unnamed_addr #4 align 2 personality ptr @__gxx_personality_v0 {
  %9 = alloca %"class.cv::Size_", align 4
  %10 = alloca ptr, align 8
  %11 = alloca ptr, align 8
  %12 = alloca float, align 4
  %13 = alloca float, align 4
  %14 = alloca float, align 4
  %15 = alloca float, align 4
  %16 = alloca float, align 4
  %17 = alloca %"class.std::__cxx11::basic_string", align 8
  %18 = alloca %"class.std::allocator.10", align 1
  %19 = alloca ptr, align 8
  %20 = alloca i32, align 4
  %21 = alloca %"class.std::__cxx11::basic_string", align 8
  %22 = alloca %"class.std::allocator.10", align 1
  %23 = alloca %"class.std::__cxx11::basic_string", align 8
  %24 = alloca %"class.std::allocator.10", align 1
  store i64 %2, ptr %9, align 4
  store ptr %0, ptr %10, align 8
  store ptr %1, ptr %11, align 8
  store float %3, ptr %12, align 4
  store float %4, ptr %13, align 4
  store float %5, ptr %14, align 4
  store float %6, ptr %15, align 4
  store float %7, ptr %16, align 4
  %25 = load ptr, ptr %10, align 8
  call void @_ZN2cv16DenseOpticalFlowC2Ev(ptr noundef nonnull align 8 dereferenceable(8) %25)
  store ptr getelementptr inbounds inrange(-16, 80) ({ [12 x ptr] }, ptr @_ZTVN2cv7optflow18OpticalFlowPCAFlowE, i32 0, i32 0, i32 2), ptr %25, align 8
  %26 = getelementptr inbounds %"class.cv::optflow::OpticalFlowPCAFlow", ptr %25, i32 0, i32 1
  call void @_ZN2cv3PtrIKNS_7optflow8PCAPriorEEC2ERKS4_(ptr noundef nonnull align 8 dereferenceable(16) %26, ptr noundef nonnull align 8 dereferenceable(16) %1) #3
  %27 = getelementptr inbounds %"class.cv::optflow::OpticalFlowPCAFlow", ptr %25, i32 0, i32 2
  call void @llvm.memcpy.p0.p0.i64(ptr align 8 %27, ptr align 4 %9, i64 8, i1 false)
  %28 = getelementptr inbounds %"class.cv::optflow::OpticalFlowPCAFlow", ptr %25, i32 0, i32 3
  %29 = load float, ptr %12, align 4
  store float %29, ptr %28, align 8
  %30 = getelementptr inbounds %"class.cv::optflow::OpticalFlowPCAFlow", ptr %25, i32 0, i32 4
  %31 = load float, ptr %13, align 4
  store float %31, ptr %30, align 4
  %32 = getelementptr inbounds %"class.cv::optflow::OpticalFlowPCAFlow", ptr %25, i32 0, i32 5
  %33 = load float, ptr %14, align 4
  store float %33, ptr %32, align 8
  %34 = getelementptr inbounds %"class.cv::optflow::OpticalFlowPCAFlow", ptr %25, i32 0, i32 6
  %35 = load float, ptr %15, align 4
  store float %35, ptr %34, align 4
  %36 = getelementptr inbounds %"class.cv::optflow::OpticalFlowPCAFlow", ptr %25, i32 0, i32 7
  %37 = load float, ptr %16, align 4
  store float %37, ptr %36, align 8
  %38 = getelementptr inbounds %"class.cv::optflow::OpticalFlowPCAFlow", ptr %25, i32 0, i32 8
  store i8 0, ptr %38, align 4
  br label %39

39:                                               ; preds = %8
  %40 = getelementptr inbounds %"class.cv::optflow::OpticalFlowPCAFlow", ptr %25, i32 0, i32 3
  %41 = load float, ptr %40, align 8
  %42 = fcmp ogt float %41, 0.000000e+00
  br i1 %42, label %43, label %49

43:                                               ; preds = %39
  %44 = getelementptr inbounds %"class.cv::optflow::OpticalFlowPCAFlow", ptr %25, i32 0, i32 3
  %45 = load float, ptr %44, align 8
  %46 = fpext float %45 to double
  %47 = fcmp ole double %46, 1.000000e-01
  br i1 %47, label %48, label %49

48:                                               ; preds = %43
  br label %61

49:                                               ; preds = %43, %39
  call void @_ZNSaIcEC1Ev(ptr noundef nonnull align 1 dereferenceable(1) %18) #3
  invoke void @_ZNSt7__cxx1112basic_stringIcSt11char_traitsIcESaIcEEC1EPKcRKS3_(ptr noundef nonnull align 8 dereferenceable(32) %17, ptr noundef @.str.8, ptr noundef nonnull align 1 dereferenceable(1) %18)
          to label %50 unwind label %52

50:                                               ; preds = %49
  invoke void @_ZN2cv5errorEiRKNSt7__cxx1112basic_stringIcSt11char_traitsIcESaIcEEEPKcS9_i(i32 noundef -215, ptr noundef nonnull align 8 dereferenceable(32) %17, ptr noundef @__func__._ZN2cv7optflow18OpticalFlowPCAFlowC2ENS_3PtrIKNS0_8PCAPriorEEENS_5Size_IiEEfffff, ptr noundef @.str.3, i32 noundef 489) #15
          to label %51 unwind label %56

51:                                               ; preds = %50
  unreachable

52:                                               ; preds = %49
  %53 = landingpad { ptr, i32 }
          cleanup
  %54 = extractvalue { ptr, i32 } %53, 0
  store ptr %54, ptr %19, align 8
  %55 = extractvalue { ptr, i32 } %53, 1
  store i32 %55, ptr %20, align 4
  br label %60

56:                                               ; preds = %50
  %57 = landingpad { ptr, i32 }
          cleanup
  %58 = extractvalue { ptr, i32 } %57, 0
  store ptr %58, ptr %19, align 8
  %59 = extractvalue { ptr, i32 } %57, 1
  store i32 %59, ptr %20, align 4
  call void @_ZNSt7__cxx1112basic_stringIcSt11char_traitsIcESaIcEED1Ev(ptr noundef nonnull align 8 dereferenceable(32) %17) #3
  br label %60

60:                                               ; preds = %56, %52
  call void @_ZNSaIcED1Ev(ptr noundef nonnull align 1 dereferenceable(1) %18) #3
  br label %109

61:                                               ; preds = %48
  br label %62

62:                                               ; preds = %61
  br label %63

63:                                               ; preds = %62
  br label %64

64:                                               ; preds = %63
  %65 = getelementptr inbounds %"class.cv::optflow::OpticalFlowPCAFlow", ptr %25, i32 0, i32 4
  %66 = load float, ptr %65, align 4
  %67 = fcmp oge float %66, 0.000000e+00
  br i1 %67, label %68, label %74

68:                                               ; preds = %64
  %69 = getelementptr inbounds %"class.cv::optflow::OpticalFlowPCAFlow", ptr %25, i32 0, i32 4
  %70 = load float, ptr %69, align 4
  %71 = fpext float %70 to double
  %72 = fcmp ole double %71, 1.000000e+00
  br i1 %72, label %73, label %74

73:                                               ; preds = %68
  br label %86

74:                                               ; preds = %68, %64
  call void @_ZNSaIcEC1Ev(ptr noundef nonnull align 1 dereferenceable(1) %22) #3
  invoke void @_ZNSt7__cxx1112basic_stringIcSt11char_traitsIcESaIcEEC1EPKcRKS3_(ptr noundef nonnull align 8 dereferenceable(32) %21, ptr noundef @.str.9, ptr noundef nonnull align 1 dereferenceable(1) %22)
          to label %75 unwind label %77

75:                                               ; preds = %74
  invoke void @_ZN2cv5errorEiRKNSt7__cxx1112basic_stringIcSt11char_traitsIcESaIcEEEPKcS9_i(i32 noundef -215, ptr noundef nonnull align 8 dereferenceable(32) %21, ptr noundef @__func__._ZN2cv7optflow18OpticalFlowPCAFlowC2ENS_3PtrIKNS0_8PCAPriorEEENS_5Size_IiEEfffff, ptr noundef @.str.3, i32 noundef 490) #15
          to label %76 unwind label %81

76:                                               ; preds = %75
  unreachable

77:                                               ; preds = %74
  %78 = landingpad { ptr, i32 }
          cleanup
  %79 = extractvalue { ptr, i32 } %78, 0
  store ptr %79, ptr %19, align 8
  %80 = extractvalue { ptr, i32 } %78, 1
  store i32 %80, ptr %20, align 4
  br label %85

81:                                               ; preds = %75
  %82 = landingpad { ptr, i32 }
          cleanup
  %83 = extractvalue { ptr, i32 } %82, 0
  store ptr %83, ptr %19, align 8
  %84 = extractvalue { ptr, i32 } %82, 1
  store i32 %84, ptr %20, align 4
  call void @_ZNSt7__cxx1112basic_stringIcSt11char_traitsIcESaIcEED1Ev(ptr noundef nonnull align 8 dereferenceable(32) %21) #3
  br label %85

85:                                               ; preds = %81, %77
  call void @_ZNSaIcED1Ev(ptr noundef nonnull align 1 dereferenceable(1) %22) #3
  br label %109

86:                                               ; preds = %73
  br label %87

87:                                               ; preds = %86
  br label %88

88:                                               ; preds = %87
  br label %89

89:                                               ; preds = %88
  %90 = getelementptr inbounds %"class.cv::optflow::OpticalFlowPCAFlow", ptr %25, i32 0, i32 5
  %91 = load float, ptr %90, align 8
  %92 = fcmp ogt float %91, 0.000000e+00
  br i1 %92, label %93, label %94

93:                                               ; preds = %89
  br label %106

94:                                               ; preds = %89
  call void @_ZNSaIcEC1Ev(ptr noundef nonnull align 1 dereferenceable(1) %24) #3
  invoke void @_ZNSt7__cxx1112basic_stringIcSt11char_traitsIcESaIcEEC1EPKcRKS3_(ptr noundef nonnull align 8 dereferenceable(32) %23, ptr noundef @.str.10, ptr noundef nonnull align 1 dereferenceable(1) %24)
          to label %95 unwind label %97

95:                                               ; preds = %94
  invoke void @_ZN2cv5errorEiRKNSt7__cxx1112basic_stringIcSt11char_traitsIcESaIcEEEPKcS9_i(i32 noundef -215, ptr noundef nonnull align 8 dereferenceable(32) %23, ptr noundef @__func__._ZN2cv7optflow18OpticalFlowPCAFlowC2ENS_3PtrIKNS0_8PCAPriorEEENS_5Size_IiEEfffff, ptr noundef @.str.3, i32 noundef 491) #15
          to label %96 unwind label %101

96:                                               ; preds = %95
  unreachable

97:                                               ; preds = %94
  %98 = landingpad { ptr, i32 }
          cleanup
  %99 = extractvalue { ptr, i32 } %98, 0
  store ptr %99, ptr %19, align 8
  %100 = extractvalue { ptr, i32 } %98, 1
  store i32 %100, ptr %20, align 4
  br label %105

101:                                              ; preds = %95
  %102 = landingpad { ptr, i32 }
          cleanup
  %103 = extractvalue { ptr, i32 } %102, 0
  store ptr %103, ptr %19, align 8
  %104 = extractvalue { ptr, i32 } %102, 1
  store i32 %104, ptr %20, align 4
  call void @_ZNSt7__cxx1112basic_stringIcSt11char_traitsIcESaIcEED1Ev(ptr noundef nonnull align 8 dereferenceable(32) %23) #3
  br label %105

105:                                              ; preds = %101, %97
  call void @_ZNSaIcED1Ev(ptr noundef nonnull align 1 dereferenceable(1) %24) #3
  br label %109

106:                                              ; preds = %93
  br label %107

107:                                              ; preds = %106
  br label %108

108:                                              ; preds = %107
  ret void

109:                                              ; preds = %105, %85, %60
  call void @_ZN2cv3PtrIKNS_7optflow8PCAPriorEED2Ev(ptr noundef nonnull align 8 dereferenceable(16) %26) #3
  call void @_ZN2cv16DenseOpticalFlowD2Ev(ptr noundef nonnull align 8 dereferenceable(8) %25) #3
  br label %110

110:                                              ; preds = %109
  %111 = load ptr, ptr %19, align 8
  %112 = load i32, ptr %20, align 4
  %113 = insertvalue { ptr, i32 } poison, ptr %111, 0
  %114 = insertvalue { ptr, i32 } %113, i32 %112, 1
  resume { ptr, i32 } %114
}