; Function Attrs: mustprogress uwtable
define void @_ZN2cv7optflow18OpticalFlowPCAFlowC2ENS_3PtrIKNS0_8PCAPriorEEENS_5Size_IiEEfffff(ptr noundef nonnull align 8 dereferenceable(53) %0, ptr nocapture noundef readonly %1, i64 %2, float noundef %3, float noundef %4, float noundef %5, float noundef %6, float noundef %7) unnamed_addr #3 align 2 personality ptr @__gxx_personality_v0 {
  %9 = alloca %"class.std::__cxx11::basic_string", align 8
  %10 = alloca %"class.std::allocator.10", align 1
  %11 = alloca %"class.std::__cxx11::basic_string", align 8
  %12 = alloca %"class.std::allocator.10", align 1
  %13 = alloca %"class.std::__cxx11::basic_string", align 8
  %14 = alloca %"class.std::allocator.10", align 1
  tail call void @_ZN2cv9AlgorithmC2Ev(ptr noundef nonnull align 8 dereferenceable(8) %0)
  store ptr getelementptr inbounds inrange(-16, 80) (i8, ptr @_ZTVN2cv7optflow18OpticalFlowPCAFlowE, i64 16), ptr %0, align 8
  %15 = getelementptr inbounds i8, ptr %0, i64 8
  %16 = load ptr, ptr %1, align 8
  store ptr %16, ptr %15, align 8
  %17 = getelementptr inbounds i8, ptr %0, i64 16
  %18 = getelementptr inbounds i8, ptr %1, i64 8
  %19 = load ptr, ptr %18, align 8
  store ptr %19, ptr %17, align 8
  %.not.i.i.i.i = icmp eq ptr %19, null
  br i1 %.not.i.i.i.i, label %_ZN2cv3PtrIKNS_7optflow8PCAPriorEEC2ERKS4_.exit, label %20

20:                                               ; preds = %8
  %21 = getelementptr inbounds i8, ptr %19, i64 8
  %22 = load i8, ptr @__libc_single_threaded, align 1
  %.not.i.i.i.i.i = icmp eq i8 %22, 0
  br i1 %.not.i.i.i.i.i, label %26, label %23

23:                                               ; preds = %20
  %24 = load i32, ptr %21, align 4
  %25 = add nsw i32 %24, 1
  store i32 %25, ptr %21, align 4
  br label %_ZN2cv3PtrIKNS_7optflow8PCAPriorEEC2ERKS4_.exit

26:                                               ; preds = %20
  %27 = atomicrmw volatile add ptr %21, i32 1 acq_rel, align 4
  br label %_ZN2cv3PtrIKNS_7optflow8PCAPriorEEC2ERKS4_.exit

_ZN2cv3PtrIKNS_7optflow8PCAPriorEEC2ERKS4_.exit:  ; preds = %8, %23, %26
  %28 = getelementptr inbounds i8, ptr %0, i64 24
  store i64 %2, ptr %28, align 8
  %29 = getelementptr inbounds i8, ptr %0, i64 32
  store float %3, ptr %29, align 8
  %30 = getelementptr inbounds i8, ptr %0, i64 36
  store float %4, ptr %30, align 4
  %31 = getelementptr inbounds i8, ptr %0, i64 40
  store float %5, ptr %31, align 8
  %32 = getelementptr inbounds i8, ptr %0, i64 44
  store float %6, ptr %32, align 4
  %33 = getelementptr inbounds i8, ptr %0, i64 48
  store float %7, ptr %33, align 8
  %34 = getelementptr inbounds i8, ptr %0, i64 52
  store i8 0, ptr %34, align 4
  %35 = fcmp ule float %3, 0.000000e+00
  %36 = fpext float %3 to double
  %37 = fcmp ugt double %36, 1.000000e-01
  %or.cond = or i1 %35, %37
  br i1 %or.cond, label %38, label %45

38:                                               ; preds = %_ZN2cv3PtrIKNS_7optflow8PCAPriorEEC2ERKS4_.exit
  call void @_ZNSaIcEC1Ev(ptr noundef nonnull align 1 dereferenceable(1) %10) #22
  invoke void @_ZNSt7__cxx1112basic_stringIcSt11char_traitsIcESaIcEEC1EPKcRKS3_(ptr noundef nonnull align 8 dereferenceable(32) %9, ptr noundef nonnull @.str.8, ptr noundef nonnull align 1 dereferenceable(1) %10)
          to label %39 unwind label %41

39:                                               ; preds = %38
  invoke void @_ZN2cv5errorEiRKNSt7__cxx1112basic_stringIcSt11char_traitsIcESaIcEEEPKcS9_i(i32 noundef -215, ptr noundef nonnull align 8 dereferenceable(32) %9, ptr noundef nonnull @__func__._ZN2cv7optflow18OpticalFlowPCAFlowC2ENS_3PtrIKNS0_8PCAPriorEEENS_5Size_IiEEfffff, ptr noundef nonnull @.str.3, i32 noundef 489) #25
          to label %40 unwind label %43

40:                                               ; preds = %39
  unreachable

41:                                               ; preds = %38
  %42 = landingpad { ptr, i32 }
          cleanup
  br label %65

43:                                               ; preds = %39
  %44 = landingpad { ptr, i32 }
          cleanup
  call void @_ZNSt7__cxx1112basic_stringIcSt11char_traitsIcESaIcEED1Ev(ptr noundef nonnull align 8 dereferenceable(32) %9) #22
  br label %65

45:                                               ; preds = %_ZN2cv3PtrIKNS_7optflow8PCAPriorEEC2ERKS4_.exit
  %46 = fcmp ult float %4, 0.000000e+00
  %47 = fcmp ugt float %4, 1.000000e+00
  %or.cond20 = or i1 %46, %47
  br i1 %or.cond20, label %48, label %55

48:                                               ; preds = %45
  call void @_ZNSaIcEC1Ev(ptr noundef nonnull align 1 dereferenceable(1) %12) #22
  invoke void @_ZNSt7__cxx1112basic_stringIcSt11char_traitsIcESaIcEEC1EPKcRKS3_(ptr noundef nonnull align 8 dereferenceable(32) %11, ptr noundef nonnull @.str.9, ptr noundef nonnull align 1 dereferenceable(1) %12)
          to label %49 unwind label %51

49:                                               ; preds = %48
  invoke void @_ZN2cv5errorEiRKNSt7__cxx1112basic_stringIcSt11char_traitsIcESaIcEEEPKcS9_i(i32 noundef -215, ptr noundef nonnull align 8 dereferenceable(32) %11, ptr noundef nonnull @__func__._ZN2cv7optflow18OpticalFlowPCAFlowC2ENS_3PtrIKNS0_8PCAPriorEEENS_5Size_IiEEfffff, ptr noundef nonnull @.str.3, i32 noundef 490) #25
          to label %50 unwind label %53

50:                                               ; preds = %49
  unreachable

51:                                               ; preds = %48
  %52 = landingpad { ptr, i32 }
          cleanup
  br label %65

53:                                               ; preds = %49
  %54 = landingpad { ptr, i32 }
          cleanup
  call void @_ZNSt7__cxx1112basic_stringIcSt11char_traitsIcESaIcEED1Ev(ptr noundef nonnull align 8 dereferenceable(32) %11) #22
  br label %65

55:                                               ; preds = %45
  %56 = fcmp ogt float %5, 0.000000e+00
  br i1 %56, label %64, label %57

57:                                               ; preds = %55
  call void @_ZNSaIcEC1Ev(ptr noundef nonnull align 1 dereferenceable(1) %14) #22
  invoke void @_ZNSt7__cxx1112basic_stringIcSt11char_traitsIcESaIcEEC1EPKcRKS3_(ptr noundef nonnull align 8 dereferenceable(32) %13, ptr noundef nonnull @.str.10, ptr noundef nonnull align 1 dereferenceable(1) %14)
          to label %58 unwind label %60

58:                                               ; preds = %57
  invoke void @_ZN2cv5errorEiRKNSt7__cxx1112basic_stringIcSt11char_traitsIcESaIcEEEPKcS9_i(i32 noundef -215, ptr noundef nonnull align 8 dereferenceable(32) %13, ptr noundef nonnull @__func__._ZN2cv7optflow18OpticalFlowPCAFlowC2ENS_3PtrIKNS0_8PCAPriorEEENS_5Size_IiEEfffff, ptr noundef nonnull @.str.3, i32 noundef 491) #25
          to label %59 unwind label %62

59:                                               ; preds = %58
  unreachable

60:                                               ; preds = %57
  %61 = landingpad { ptr, i32 }
          cleanup
  br label %65

62:                                               ; preds = %58
  %63 = landingpad { ptr, i32 }
          cleanup
  call void @_ZNSt7__cxx1112basic_stringIcSt11char_traitsIcESaIcEED1Ev(ptr noundef nonnull align 8 dereferenceable(32) %13) #22
  br label %65

64:                                               ; preds = %55
  ret void

65:                                               ; preds = %60, %62, %51, %53, %41, %43
  %.sink = phi ptr [ %10, %43 ], [ %10, %41 ], [ %12, %53 ], [ %12, %51 ], [ %14, %62 ], [ %14, %60 ]
  %.pn16.pn = phi { ptr, i32 } [ %44, %43 ], [ %42, %41 ], [ %54, %53 ], [ %52, %51 ], [ %63, %62 ], [ %61, %60 ]
  call void @_ZNSaIcED1Ev(ptr noundef nonnull align 1 dereferenceable(1) %.sink) #22
  call void @_ZN2cv3PtrIKNS_7optflow8PCAPriorEED2Ev(ptr noundef nonnull align 8 dereferenceable(16) %15) #22
  call void @_ZN2cv9AlgorithmD2Ev(ptr noundef nonnull align 8 dereferenceable(8) %0) #22
  resume { ptr, i32 } %.pn16.pn
}